target datalayout = "e-m:e-p270:32:32-p271:32:32-p272:64:64-i64:64-i128:128-f80:128-n8:16:32:64-S128"
target triple = "x86_64-pc-linux-gnu"

%struct.GetBitContext = type { ptr, ptr, i32, i32, i32 }

@ff_log2_tab = external constant [256 x i8], align 16
@ff_golomb_vlc_len = external constant [512 x i8], align 16
@ff_se_golomb_vlc_code = external constant [512 x i8], align 16

; Function Attrs: alwaysinline nounwind willreturn memory(none) uwtable
define internal i32 @ff_log2_c(i32 noundef %0) #8 {
  %2 = alloca i32, align 4
  %3 = alloca i32, align 4
  store i32 %0, ptr %2, align 4, !tbaa !57
  call void @llvm.lifetime.start.p0(i64 4, ptr %3) #12
  store i32 0, ptr %3, align 4, !tbaa !57
  %4 = load i32, ptr %2, align 4, !tbaa !57
  %5 = and i32 %4, -65536
  %6 = icmp ne i32 %5, 0
  br i1 %6, label %7, label %12

7:                                                ; preds = %1
  %8 = load i32, ptr %2, align 4, !tbaa !57
  %9 = lshr i32 %8, 16
  store i32 %9, ptr %2, align 4, !tbaa !57
  %10 = load i32, ptr %3, align 4, !tbaa !57
  %11 = add nsw i32 %10, 16
  store i32 %11, ptr %3, align 4, !tbaa !57
  br label %12

12:                                               ; preds = %7, %1
  %13 = load i32, ptr %2, align 4, !tbaa !57
  %14 = and i32 %13, 65280
  %15 = icmp ne i32 %14, 0
  br i1 %15, label %16, label %21

16:                                               ; preds = %12
  %17 = load i32, ptr %2, align 4, !tbaa !57
  %18 = lshr i32 %17, 8
  store i32 %18, ptr %2, align 4, !tbaa !57
  %19 = load i32, ptr %3, align 4, !tbaa !57
  %20 = add nsw i32 %19, 8
  store i32 %20, ptr %3, align 4, !tbaa !57
  br label %21

21:                                               ; preds = %16, %12
  %22 = load i32, ptr %2, align 4, !tbaa !57
  %23 = zext i32 %22 to i64
  %24 = getelementptr inbounds nuw [256 x i8], ptr @ff_log2_tab, i64 0, i64 %23
  %25 = load i8, ptr %24, align 1, !tbaa !99
  %26 = zext i8 %25 to i32
  %27 = load i32, ptr %3, align 4, !tbaa !57
  %28 = add nsw i32 %27, %26
  store i32 %28, ptr %3, align 4, !tbaa !57
  %29 = load i32, ptr %3, align 4, !tbaa !57
  call void @llvm.lifetime.end.p0(i64 4, ptr %3) #12
  ret i32 %29
}

; Function Attrs: alwaysinline nounwind willreturn memory(none) uwtable
define internal i32 @av_bswap32(i32 noundef %0) #8 {
  %2 = alloca i32, align 4
  store i32 %0, ptr %2, align 4, !tbaa !57
  %3 = load i32, ptr %2, align 4, !tbaa !57
  %4 = shl i32 %3, 8
  %5 = and i32 %4, 65280
  %6 = load i32, ptr %2, align 4, !tbaa !57
  %7 = lshr i32 %6, 8
  %8 = and i32 %7, 255
  %9 = or i32 %5, %8
  %10 = shl i32 %9, 16
  %11 = load i32, ptr %2, align 4, !tbaa !57
  %12 = lshr i32 %11, 16
  %13 = shl i32 %12, 8
  %14 = and i32 %13, 65280
  %15 = load i32, ptr %2, align 4, !tbaa !57
  %16 = lshr i32 %15, 16
  %17 = lshr i32 %16, 8
  %18 = and i32 %17, 255
  %19 = or i32 %14, %18
  %20 = or i32 %10, %19
  ret i32 %20
}

; Function Attrs: inlinehint nounwind uwtable
define internal i32 @get_se_golomb(ptr noundef %0) #5 {
  %2 = alloca i32, align 4
  %3 = alloca ptr, align 8
  %4 = alloca i32, align 4
  %5 = alloca i32, align 4
  %6 = alloca i32, align 4
  %7 = alloca i32, align 4
  %8 = alloca i32, align 4
  %9 = alloca i32, align 4
  store ptr %0, ptr %3, align 8, !tbaa !172
  call void @llvm.lifetime.start.p0(i64 4, ptr %4) #12
  call void @llvm.lifetime.start.p0(i64 4, ptr %5) #12
  %10 = load ptr, ptr %3, align 8, !tbaa !172
  %11 = getelementptr inbounds nuw %struct.GetBitContext, ptr %10, i32 0, i32 2
  %12 = load i32, ptr %11, align 8, !tbaa !178
  store i32 %12, ptr %5, align 4, !tbaa !57
  call void @llvm.lifetime.start.p0(i64 4, ptr %6) #12
  %13 = load ptr, ptr %3, align 8, !tbaa !172
  %14 = getelementptr inbounds nuw %struct.GetBitContext, ptr %13, i32 0, i32 0
  %15 = load ptr, ptr %14, align 8, !tbaa !174
  %16 = load i32, ptr %5, align 4, !tbaa !57
  %17 = lshr i32 %16, 3
  %18 = zext i32 %17 to i64
  %19 = getelementptr inbounds nuw i8, ptr %15, i64 %18
  %20 = load i32, ptr %19, align 1, !tbaa !99
  %21 = call i32 @av_bswap32(i32 noundef %20) #13
  %22 = load i32, ptr %5, align 4, !tbaa !57
  %23 = and i32 %22, 7
  %24 = shl i32 %21, %23
  %25 = lshr i32 %24, 0
  store i32 %25, ptr %6, align 4, !tbaa !57
  %26 = load i32, ptr %6, align 4, !tbaa !57
  store i32 %26, ptr %4, align 4, !tbaa !57
  %27 = load i32, ptr %4, align 4, !tbaa !57
  %28 = icmp uge i32 %27, 134217728
  br i1 %28, label %29, label %47

29:                                               ; preds = %1
  %30 = load i32, ptr %4, align 4, !tbaa !57
  %31 = lshr i32 %30, 23
  store i32 %31, ptr %4, align 4, !tbaa !57
  %32 = load i32, ptr %4, align 4, !tbaa !57
  %33 = zext i32 %32 to i64
  %34 = getelementptr inbounds nuw [512 x i8], ptr @ff_golomb_vlc_len, i64 0, i64 %33
  %35 = load i8, ptr %34, align 1, !tbaa !99
  %36 = zext i8 %35 to i32
  %37 = load i32, ptr %5, align 4, !tbaa !57
  %38 = add i32 %37, %36
  store i32 %38, ptr %5, align 4, !tbaa !57
  %39 = load i32, ptr %5, align 4, !tbaa !57
  %40 = load ptr, ptr %3, align 8, !tbaa !172
  %41 = getelementptr inbounds nuw %struct.GetBitContext, ptr %40, i32 0, i32 2
  store i32 %39, ptr %41, align 8, !tbaa !178
  %42 = load i32, ptr %4, align 4, !tbaa !57
  %43 = zext i32 %42 to i64
  %44 = getelementptr inbounds nuw [512 x i8], ptr @ff_se_golomb_vlc_code, i64 0, i64 %43
  %45 = load i8, ptr %44, align 1, !tbaa !99
  %46 = sext i8 %45 to i32
  store i32 %46, ptr %2, align 4
  store i32 1, ptr %7, align 4
  br label %88

47:                                               ; preds = %1
  call void @llvm.lifetime.start.p0(i64 4, ptr %8) #12
  %48 = load i32, ptr %4, align 4, !tbaa !57
  %49 = call i32 @ff_log2_c(i32 noundef %48) #13
  store i32 %49, ptr %8, align 4, !tbaa !57
  call void @llvm.lifetime.start.p0(i64 4, ptr %9) #12
  %50 = load i32, ptr %8, align 4, !tbaa !57
  %51 = sub nsw i32 31, %50
  %52 = load i32, ptr %5, align 4, !tbaa !57
  %53 = add i32 %52, %51
  store i32 %53, ptr %5, align 4, !tbaa !57
  %54 = load ptr, ptr %3, align 8, !tbaa !172
  %55 = getelementptr inbounds nuw %struct.GetBitContext, ptr %54, i32 0, i32 0
  %56 = load ptr, ptr %55, align 8, !tbaa !174
  %57 = load i32, ptr %5, align 4, !tbaa !57
  %58 = lshr i32 %57, 3
  %59 = zext i32 %58 to i64
  %60 = getelementptr inbounds nuw i8, ptr %56, i64 %59
  %61 = load i32, ptr %60, align 1, !tbaa !99
  %62 = call i32 @av_bswap32(i32 noundef %61) #13
  %63 = load i32, ptr %5, align 4, !tbaa !57
  %64 = and i32 %63, 7
  %65 = shl i32 %62, %64
  %66 = lshr i32 %65, 0
  store i32 %66, ptr %6, align 4, !tbaa !57
  %67 = load i32, ptr %6, align 4, !tbaa !57
  store i32 %67, ptr %4, align 4, !tbaa !57
  %68 = load i32, ptr %8, align 4, !tbaa !57
  %69 = load i32, ptr %4, align 4, !tbaa !57
  %70 = lshr i32 %69, %68
  store i32 %70, ptr %4, align 4, !tbaa !57
  %71 = load i32, ptr %8, align 4, !tbaa !57
  %72 = sub nsw i32 32, %71
  %73 = load i32, ptr %5, align 4, !tbaa !57
  %74 = add i32 %73, %72
  store i32 %74, ptr %5, align 4, !tbaa !57
  %75 = load i32, ptr %5, align 4, !tbaa !57
  %76 = load ptr, ptr %3, align 8, !tbaa !172
  %77 = getelementptr inbounds nuw %struct.GetBitContext, ptr %76, i32 0, i32 2
  store i32 %75, ptr %77, align 8, !tbaa !178
  %78 = load i32, ptr %4, align 4, !tbaa !57
  %79 = and i32 %78, 1
  %80 = sub i32 0, %79
  store i32 %80, ptr %9, align 4, !tbaa !57
  %81 = load i32, ptr %4, align 4, !tbaa !57
  %82 = lshr i32 %81, 1
  %83 = load i32, ptr %9, align 4, !tbaa !57
  %84 = xor i32 %82, %83
  %85 = load i32, ptr %9, align 4, !tbaa !57
  %86 = sub i32 %84, %85
  store i32 %86, ptr %4, align 4, !tbaa !57
  %87 = load i32, ptr %4, align 4, !tbaa !57
  store i32 %87, ptr %2, align 4
  store i32 1, ptr %7, align 4
  call void @llvm.lifetime.end.p0(i64 4, ptr %9) #12
  call void @llvm.lifetime.end.p0(i64 4, ptr %8) #12
  br label %88

88:                                               ; preds = %47, %29
  call void @llvm.lifetime.end.p0(i64 4, ptr %6) #12
  call void @llvm.lifetime.end.p0(i64 4, ptr %5) #12
  call void @llvm.lifetime.end.p0(i64 4, ptr %4) #12
  %89 = load i32, ptr %2, align 4
  ret i32 %89
}