; Function Attrs: inlinehint mustprogress nofree norecurse nosync nounwind willreturn memory(read, argmem: readwrite, inaccessiblemem: none) uwtable
define internal fastcc i32 @get_se_golomb(ptr noundef nonnull captures(none) %0) unnamed_addr #6 {
  %2 = getelementptr inbounds nuw i8, ptr %0, i64 16
  %3 = load i32, ptr %2, align 8, !tbaa !89
  %4 = load ptr, ptr %0, align 8, !tbaa !85
  %5 = lshr i32 %3, 3
  %6 = zext nneg i32 %5 to i64
  %7 = getelementptr inbounds nuw i8, ptr %4, i64 %6
  %8 = load i32, ptr %7, align 1, !tbaa !78
  %9 = tail call i32 @llvm.bswap.i32(i32 %8)
  %10 = and i32 %3, 7
  %11 = shl i32 %9, %10
  %12 = icmp ugt i32 %11, 134217727
  br i1 %12, label %13, label %23

13:                                               ; preds = %1
  %14 = lshr i32 %11, 23
  %15 = zext nneg i32 %14 to i64
  %16 = getelementptr inbounds nuw [512 x i8], ptr @ff_golomb_vlc_len, i64 0, i64 %15
  %17 = load i8, ptr %16, align 1, !tbaa !78
  %18 = zext i8 %17 to i32
  %19 = add i32 %3, %18
  store i32 %19, ptr %2, align 8, !tbaa !89
  %20 = getelementptr inbounds nuw [512 x i8], ptr @ff_se_golomb_vlc_code, i64 0, i64 %15
  %21 = load i8, ptr %20, align 1, !tbaa !78
  %22 = sext i8 %21 to i32
  br label %47

23:                                               ; preds = %1
  %.not.i = icmp samesign ult i32 %11, 65536
  %24 = lshr i32 %11, 16
  %spec.select.i = select i1 %.not.i, i32 %11, i32 %24
  %spec.select12.i = select i1 %.not.i, i32 0, i32 16
  %.not11.i = icmp samesign ult i32 %spec.select.i, 256
  %25 = lshr i32 %spec.select.i, 8
  %26 = or disjoint i32 %spec.select12.i, 8
  %.110.i = select i1 %.not11.i, i32 %spec.select.i, i32 %25
  %.1.i = select i1 %.not11.i, i32 %spec.select12.i, i32 %26
  %27 = zext nneg i32 %.110.i to i64
  %28 = getelementptr inbounds nuw [256 x i8], ptr @ff_log2_tab, i64 0, i64 %27
  %29 = load i8, ptr %28, align 1, !tbaa !78
  %30 = zext i8 %29 to i32
  %31 = add nuw nsw i32 %.1.i, %30
  %reass.sub = sub i32 %3, %31
  %32 = add i32 %reass.sub, 31
  %33 = lshr i32 %32, 3
  %34 = zext nneg i32 %33 to i64
  %35 = getelementptr inbounds nuw i8, ptr %4, i64 %34
  %36 = load i32, ptr %35, align 1, !tbaa !78
  %37 = tail call i32 @llvm.bswap.i32(i32 %36)
  %38 = and i32 %32, 7
  %39 = shl i32 %37, %38
  %40 = lshr i32 %39, %31
  %reass.sub31 = sub i32 %reass.sub, %31
  %41 = add i32 %reass.sub31, 63
  store i32 %41, ptr %2, align 8, !tbaa !89
  %42 = and i32 %40, 1
  %43 = sub nsw i32 0, %42
  %44 = lshr i32 %40, 1
  %45 = xor i32 %44, %43
  %46 = add i32 %45, %42
  br label %47

47:                                               ; preds = %23, %13
  %.0 = phi i32 [ %22, %13 ], [ %46, %23 ]
  ret i32 %.0
}